target datalayout = "e-m:e-p270:32:32-p271:32:32-p272:64:64-i64:64-i128:128-f80:128-n8:16:32:64-S128"
target triple = "x86_64-pc-linux-gnu"

%struct.pmix_object_t = type { %union.pthread_mutex_t, ptr, i32, %struct.pmix_tma }
%struct.pmix_tma = type { ptr, ptr, ptr, ptr, ptr, ptr, ptr, ptr }
%union.pthread_mutex_t = type { %struct.__pthread_mutex_s }
%struct.__pthread_mutex_s = type { i32, i32, i32, i32, i32, i16, i16, %struct.__pthread_internal_list }
%struct.__pthread_internal_list = type { ptr, ptr }
%struct.timeval = type { i64, i64 }
%struct.pmix_iof_flags_t = type { i8, i8, i8, i8, i8, i8, i8, ptr, ptr, i8, i8, i8, i8, i8, i8 }
%struct.pmix_class_t = type { ptr, ptr, ptr, ptr, i32, i32, ptr, ptr, i64 }
%struct.event = type { %struct.event_callback, %union.anon.2, i32, ptr, %union.anon.4, i16, i16, %struct.timeval }
%struct.event_callback = type { %struct.anon.0, i16, i8, i8, %union.anon.1, ptr }
%struct.anon.0 = type { ptr, ptr }
%union.anon.1 = type { ptr }
%union.anon.2 = type { %struct.anon.3 }
%struct.anon.3 = type { ptr, ptr }
%union.anon.4 = type { %struct.anon.5 }
%struct.anon.5 = type { %struct.anon.6, %struct.timeval }
%struct.anon.6 = type { ptr, ptr }
%struct.pmix_pfexec_fork_caddy_t = type { %struct.pmix_object_t, %struct.event, ptr, ptr, i64, ptr, i64, i16, %struct.pmix_iof_flags_t, ptr, ptr, ptr }

@.str.9 = private unnamed_addr constant [21 x i8] c"pthread_mutex_lock()\00", align 1

; Function Attrs: inlinehint nounwind uwtable
define internal void @pmix_tma_free(ptr noundef %0, ptr noundef %1) #2 {
  %3 = alloca ptr, align 8
  %4 = alloca ptr, align 8
  store ptr %0, ptr %3, align 8, !tbaa !77
  store ptr %1, ptr %4, align 8, !tbaa !53
  %5 = load ptr, ptr %3, align 8, !tbaa !77
  %6 = icmp ne ptr null, %5
  br i1 %6, label %7, label %13

7:                                                ; preds = %2
  %8 = load ptr, ptr %3, align 8, !tbaa !77
  %9 = getelementptr inbounds nuw %struct.pmix_tma, ptr %8, i32 0, i32 5
  %10 = load ptr, ptr %9, align 8, !tbaa !165
  %11 = load ptr, ptr %3, align 8, !tbaa !77
  %12 = load ptr, ptr %4, align 8, !tbaa !53
  call void %10(ptr noundef %11, ptr noundef %12)
  br label %15

13:                                               ; preds = %2
  %14 = load ptr, ptr %4, align 8, !tbaa !53
  call void @free(ptr noundef %14) #13
  br label %15

15:                                               ; preds = %13, %7
  ret void
}

; Function Attrs: inlinehint nounwind uwtable
define internal void @pmix_obj_run_destructors(ptr noundef %0) #2 {
  %2 = alloca ptr, align 8
  %3 = alloca ptr, align 8
  store ptr %0, ptr %2, align 8, !tbaa !68
  call void @llvm.lifetime.start.p0(i64 8, ptr %3) #13
  %4 = load ptr, ptr %2, align 8, !tbaa !68
  %5 = getelementptr inbounds nuw %struct.pmix_object_t, ptr %4, i32 0, i32 1
  %6 = load ptr, ptr %5, align 8, !tbaa !82
  %7 = getelementptr inbounds nuw %struct.pmix_class_t, ptr %6, i32 0, i32 7
  %8 = load ptr, ptr %7, align 8, !tbaa !163
  store ptr %8, ptr %3, align 8, !tbaa !53
  br label %9

9:                                                ; preds = %13, %1
  %10 = load ptr, ptr %3, align 8, !tbaa !53
  %11 = load ptr, ptr %10, align 8, !tbaa !53
  %12 = icmp ne ptr null, %11
  br i1 %12, label %13, label %19

13:                                               ; preds = %9
  %14 = load ptr, ptr %3, align 8, !tbaa !53
  %15 = load ptr, ptr %14, align 8, !tbaa !53
  %16 = load ptr, ptr %2, align 8, !tbaa !68
  call void %15(ptr noundef %16)
  %17 = load ptr, ptr %3, align 8, !tbaa !53
  %18 = getelementptr inbounds nuw ptr, ptr %17, i32 1
  store ptr %18, ptr %3, align 8, !tbaa !53
  br label %9, !llvm.loop !164

19:                                               ; preds = %9
  call void @llvm.lifetime.end.p0(i64 8, ptr %3) #13
  ret void
}

; Function Attrs: alwaysinline nounwind uwtable
define internal i32 @pmix_obj_update(ptr noundef %0, i32 noundef %1) #6 {
  %3 = alloca ptr, align 8
  %4 = alloca i32, align 4
  %5 = alloca i32, align 4
  store ptr %0, ptr %3, align 8, !tbaa !68
  store i32 %1, ptr %4, align 4, !tbaa !54
  call void @llvm.lifetime.start.p0(i64 4, ptr %5) #13
  %6 = load ptr, ptr %3, align 8, !tbaa !68
  %7 = getelementptr inbounds nuw %struct.pmix_object_t, ptr %6, i32 0, i32 0
  %8 = call i32 @pthread_mutex_lock(ptr noundef %7) #13
  store i32 %8, ptr %5, align 4, !tbaa !54
  %9 = load i32, ptr %5, align 4, !tbaa !54
  %10 = icmp eq i32 %9, 35
  br i1 %10, label %11, label %14

11:                                               ; preds = %2
  %12 = load i32, ptr %5, align 4, !tbaa !54
  %13 = call ptr @__errno_location() #16
  store i32 %12, ptr %13, align 4, !tbaa !54
  call void @perror(ptr noundef @.str.9)
  call void @abort() #17
  unreachable

14:                                               ; preds = %2
  %15 = load i32, ptr %4, align 4, !tbaa !54
  %16 = load ptr, ptr %3, align 8, !tbaa !68
  %17 = getelementptr inbounds nuw %struct.pmix_object_t, ptr %16, i32 0, i32 2
  %18 = load i32, ptr %17, align 8, !tbaa !83
  %19 = add nsw i32 %18, %15
  store i32 %19, ptr %17, align 8, !tbaa !83
  store i32 %19, ptr %5, align 4, !tbaa !54
  %20 = load ptr, ptr %3, align 8, !tbaa !68
  %21 = getelementptr inbounds nuw %struct.pmix_object_t, ptr %20, i32 0, i32 0
  %22 = call i32 @pthread_mutex_unlock(ptr noundef %21) #13
  %23 = load i32, ptr %5, align 4, !tbaa !54
  call void @llvm.lifetime.end.p0(i64 4, ptr %5) #13
  ret i32 %23
}

; Function Attrs: nounwind uwtable
define internal void @localcbfunc(i32 noundef %0, ptr noundef %1, ptr noundef %2) #0 {
  %4 = alloca i32, align 4
  %5 = alloca ptr, align 8
  %6 = alloca ptr, align 8
  %7 = alloca ptr, align 8
  %8 = alloca i32, align 4
  %9 = alloca ptr, align 8
  store i32 %0, ptr %4, align 4, !tbaa !54
  store ptr %1, ptr %5, align 8, !tbaa !12
  store ptr %2, ptr %6, align 8, !tbaa !53
  call void @llvm.lifetime.start.p0(i64 8, ptr %7) #13
  %10 = load ptr, ptr %6, align 8, !tbaa !53
  store ptr %10, ptr %7, align 8, !tbaa !53
  call void @llvm.lifetime.start.p0(i64 4, ptr %8) #13
  %11 = load i32, ptr %4, align 4, !tbaa !54
  store i32 %11, ptr %8, align 4, !tbaa !54
  %12 = load i32, ptr %4, align 4, !tbaa !54
  %13 = icmp eq i32 0, %12
  br i1 %13, label %14, label %23

14:                                               ; preds = %3
  %15 = load ptr, ptr %7, align 8, !tbaa !53
  %16 = getelementptr inbounds nuw %struct.pmix_pfexec_fork_caddy_t, ptr %15, i32 0, i32 2
  %17 = load ptr, ptr %16, align 8, !tbaa !141
  %18 = load ptr, ptr %5, align 8, !tbaa !12
  %19 = load ptr, ptr %7, align 8, !tbaa !53
  %20 = getelementptr inbounds nuw %struct.pmix_pfexec_fork_caddy_t, ptr %19, i32 0, i32 7
  %21 = load i16, ptr %20, align 8, !tbaa !183
  %22 = call i32 @pmix_server_process_iof(ptr noundef %17, ptr noundef %18, i16 noundef zeroext %21)
  store i32 %22, ptr %8, align 4, !tbaa !54
  br label %23

23:                                               ; preds = %14, %3
  %24 = load ptr, ptr %7, align 8, !tbaa !53
  %25 = getelementptr inbounds nuw %struct.pmix_pfexec_fork_caddy_t, ptr %24, i32 0, i32 10
  %26 = load ptr, ptr %25, align 8, !tbaa !101
  %27 = icmp ne ptr null, %26
  br i1 %27, label %28, label %37

28:                                               ; preds = %23
  %29 = load ptr, ptr %7, align 8, !tbaa !53
  %30 = getelementptr inbounds nuw %struct.pmix_pfexec_fork_caddy_t, ptr %29, i32 0, i32 10
  %31 = load ptr, ptr %30, align 8, !tbaa !101
  %32 = load i32, ptr %8, align 4, !tbaa !54
  %33 = load ptr, ptr %5, align 8, !tbaa !12
  %34 = load ptr, ptr %7, align 8, !tbaa !53
  %35 = getelementptr inbounds nuw %struct.pmix_pfexec_fork_caddy_t, ptr %34, i32 0, i32 11
  %36 = load ptr, ptr %35, align 8, !tbaa !103
  call void %31(i32 noundef %32, ptr noundef %33, ptr noundef %36)
  br label %37

37:                                               ; preds = %28, %23
  br label %38

38:                                               ; preds = %37
  call void @llvm.lifetime.start.p0(i64 8, ptr %9) #13
  %39 = load ptr, ptr %7, align 8, !tbaa !53
  store ptr %39, ptr %9, align 8, !tbaa !68
  %40 = load ptr, ptr %9, align 8, !tbaa !68
  %41 = call i32 @pmix_obj_update(ptr noundef %40, i32 noundef -1)
  %42 = icmp eq i32 0, %41
  br i1 %42, label %43, label %57

43:                                               ; preds = %38
  %44 = load ptr, ptr %9, align 8, !tbaa !68
  call void @pmix_obj_run_destructors(ptr noundef %44)
  %45 = load ptr, ptr %9, align 8, !tbaa !68
  %46 = getelementptr inbounds nuw %struct.pmix_object_t, ptr %45, i32 0, i32 3
  %47 = getelementptr inbounds nuw %struct.pmix_tma, ptr %46, i32 0, i32 5
  %48 = load ptr, ptr %47, align 8, !tbaa !70
  %49 = icmp ne ptr null, %48
  br i1 %49, label %50, label %54

50:                                               ; preds = %43
  %51 = load ptr, ptr %9, align 8, !tbaa !68
  %52 = getelementptr inbounds nuw %struct.pmix_object_t, ptr %51, i32 0, i32 3
  %53 = load ptr, ptr %7, align 8, !tbaa !53
  call void @pmix_tma_free(ptr noundef %52, ptr noundef %53)
  br label %56

54:                                               ; preds = %43
  %55 = load ptr, ptr %7, align 8, !tbaa !53
  call void @free(ptr noundef %55) #13
  br label %56

56:                                               ; preds = %54, %50
  store ptr null, ptr %7, align 8, !tbaa !53
  br label %57

57:                                               ; preds = %56, %38
  call void @llvm.lifetime.end.p0(i64 8, ptr %9) #13
  br label %58

58:                                               ; preds = %57
  br label %59

59:                                               ; preds = %58
  call void @llvm.lifetime.end.p0(i64 4, ptr %8) #13
  call void @llvm.lifetime.end.p0(i64 8, ptr %7) #13
  ret void
}